; Function Attrs: mustprogress nofree norecurse nosync nounwind willreturn memory(argmem: read) uwtable
define noundef zeroext range(i8 1, 0) i8 @_ZN8facebook4yoga4Node16resolveDirectionENS0_9DirectionE(ptr noundef nonnull readonly align 8 captures(none) dereferenceable(584) %0, i8 noundef zeroext %1) local_unnamed_addr #14 align 2 {
  %3 = getelementptr inbounds nuw i8, ptr %0, i64 40
  %4 = load i32, ptr %3, align 8
  %5 = trunc i32 %4 to i8
  %6 = and i8 %5, 3
  %7 = icmp eq i8 %6, 0
  %8 = tail call i8 @llvm.umax.i8(i8 %1, i8 1)
  %.0 = select i1 %7, i8 %8, i8 %6
  ret i8 %.0
}